; Function Attrs: nounwind uwtable
define void @Abc_NtkManCutStop(ptr noundef captures(none) %0) local_unnamed_addr #0 {
  %2 = getelementptr inbounds nuw i8, ptr %0, i64 16
  %3 = load ptr, ptr %2, align 8, !tbaa !37
  %4 = getelementptr inbounds nuw i8, ptr %3, i64 8
  %5 = load ptr, ptr %4, align 8, !tbaa !14
  %.not.i = icmp eq ptr %5, null
  br i1 %.not.i, label %Vec_PtrFree.exit, label %6

6:                                                ; preds = %1
  tail call void @free(ptr noundef nonnull %5) #13
  br label %Vec_PtrFree.exit

Vec_PtrFree.exit:                                 ; preds = %1, %6
  tail call void @free(ptr noundef nonnull %3) #13
  %7 = getelementptr inbounds nuw i8, ptr %0, i64 24
  %8 = load ptr, ptr %7, align 8, !tbaa !43
  %9 = getelementptr inbounds nuw i8, ptr %8, i64 8
  %10 = load ptr, ptr %9, align 8, !tbaa !14
  %.not.i7 = icmp eq ptr %10, null
  br i1 %.not.i7, label %Vec_PtrFree.exit8, label %11

11:                                               ; preds = %Vec_PtrFree.exit
  tail call void @free(ptr noundef nonnull %10) #13
  br label %Vec_PtrFree.exit8

Vec_PtrFree.exit8:                                ; preds = %Vec_PtrFree.exit, %11
  tail call void @free(ptr noundef nonnull %8) #13
  %12 = getelementptr inbounds nuw i8, ptr %0, i64 32
  %13 = load ptr, ptr %12, align 8, !tbaa !3
  %14 = getelementptr inbounds nuw i8, ptr %13, i64 8
  %15 = load ptr, ptr %14, align 8, !tbaa !14
  %.not.i9 = icmp eq ptr %15, null
  br i1 %.not.i9, label %Vec_PtrFree.exit10, label %16

16:                                               ; preds = %Vec_PtrFree.exit8
  tail call void @free(ptr noundef nonnull %15) #13
  br label %Vec_PtrFree.exit10

Vec_PtrFree.exit10:                               ; preds = %Vec_PtrFree.exit8, %16
  tail call void @free(ptr noundef nonnull %13) #13
  %17 = getelementptr inbounds nuw i8, ptr %0, i64 40
  %18 = load ptr, ptr %17, align 8, !tbaa !84
  %19 = getelementptr i8, ptr %18, i64 4
  %.val11.i = load i32, ptr %19, align 4, !tbaa !80
  %20 = icmp sgt i32 %.val11.i, 0
  br i1 %20, label %.lr.ph.i, label %.critedge.i

.lr.ph.i:                                         ; preds = %Vec_PtrFree.exit10
  %21 = getelementptr i8, ptr %18, i64 8
  br label %22

22:                                               ; preds = %29, %.lr.ph.i
  %.val14.i = phi i32 [ %.val11.i, %.lr.ph.i ], [ %.val.i, %29 ]
  %indvars.iv.i = phi i64 [ 0, %.lr.ph.i ], [ %indvars.iv.next.i, %29 ]
  %.val8.i = load ptr, ptr %21, align 8, !tbaa !83
  %23 = getelementptr inbounds nuw ptr, ptr %.val8.i, i64 %indvars.iv.i
  %24 = load ptr, ptr %23, align 8, !tbaa !15
  %.not.i11 = icmp eq ptr %24, null
  br i1 %.not.i11, label %29, label %25

25:                                               ; preds = %22
  %26 = getelementptr inbounds nuw i8, ptr %24, i64 8
  %27 = load ptr, ptr %26, align 8, !tbaa !14
  %.not.i.i = icmp eq ptr %27, null
  br i1 %.not.i.i, label %Vec_PtrFree.exit.i, label %28

28:                                               ; preds = %25
  tail call void @free(ptr noundef nonnull %27) #13
  br label %Vec_PtrFree.exit.i

Vec_PtrFree.exit.i:                               ; preds = %28, %25
  tail call void @free(ptr noundef nonnull %24) #13
  %.val.pre.i = load i32, ptr %19, align 4, !tbaa !80
  br label %29

29:                                               ; preds = %Vec_PtrFree.exit.i, %22
  %.val.i = phi i32 [ %.val14.i, %22 ], [ %.val.pre.i, %Vec_PtrFree.exit.i ]
  %indvars.iv.next.i = add nuw nsw i64 %indvars.iv.i, 1
  %30 = sext i32 %.val.i to i64
  %31 = icmp slt i64 %indvars.iv.next.i, %30
  br i1 %31, label %22, label %.critedge.i, !llvm.loop !86

.critedge.i:                                      ; preds = %29, %Vec_PtrFree.exit10
  %32 = getelementptr inbounds nuw i8, ptr %18, i64 8
  %33 = load ptr, ptr %32, align 8, !tbaa !14
  %.not.i9.i = icmp eq ptr %33, null
  br i1 %.not.i9.i, label %Vec_VecFree.exit, label %34

34:                                               ; preds = %.critedge.i
  tail call void @free(ptr noundef nonnull %33) #13
  br label %Vec_VecFree.exit

Vec_VecFree.exit:                                 ; preds = %.critedge.i, %34
  tail call void @free(ptr noundef nonnull %18) #13
  %35 = getelementptr inbounds nuw i8, ptr %0, i64 48
  %36 = load ptr, ptr %35, align 8, !tbaa !85
  %37 = getelementptr inbounds nuw i8, ptr %36, i64 8
  %38 = load ptr, ptr %37, align 8, !tbaa !14
  %.not.i12 = icmp eq ptr %38, null
  br i1 %.not.i12, label %40, label %39

39:                                               ; preds = %Vec_VecFree.exit
  tail call void @free(ptr noundef nonnull %38) #13
  br label %40

40:                                               ; preds = %Vec_VecFree.exit, %39
  tail call void @free(ptr noundef nonnull %36) #13
  tail call void @free(ptr noundef nonnull %0) #13
  ret void
}